
array.prog:     file format elf64-x86-64

SYMBOL TABLE:
0000000000400270 l    d  .interp	0000000000000000              .interp
000000000040028c l    d  .note.ABI-tag	0000000000000000              .note.ABI-tag
00000000004002b0 l    d  .hash	0000000000000000              .hash
0000000000400348 l    d  .gnu.hash	0000000000000000              .gnu.hash
0000000000400370 l    d  .dynsym	0000000000000000              .dynsym
0000000000400538 l    d  .dynstr	0000000000000000              .dynstr
0000000000400602 l    d  .gnu.version	0000000000000000              .gnu.version
0000000000400628 l    d  .gnu.version_r	0000000000000000              .gnu.version_r
0000000000400668 l    d  .rela.dyn	0000000000000000              .rela.dyn
00000000004006c8 l    d  .rela.plt	0000000000000000              .rela.plt
0000000000401000 l    d  .init	0000000000000000              .init
0000000000401020 l    d  .plt	0000000000000000              .plt
0000000000401110 l    d  .text	0000000000000000              .text
0000000000401698 l    d  .fini	0000000000000000              .fini
0000000000402000 l    d  .rodata	0000000000000000              .rodata
0000000000402028 l    d  .eh_frame	0000000000000000              .eh_frame
0000000000403e50 l    d  .dynamic	0000000000000000              .dynamic
0000000000403ff0 l    d  .got	0000000000000000              .got
0000000000404000 l    d  .got.plt	0000000000000000              .got.plt
0000000000404088 l    d  .data	0000000000000000              .data
0000000000404090 l    d  .bss	0000000000000000              .bss
0000000000000000 l    d  .comment	0000000000000000              .comment
0000000000000000 l    df *ABS*	0000000000000000              array.o
0000000000401322 l       .text	0000000000000000              lbl_0
0000000000000000 l    df *ABS*	0000000000000000              stdcrona.c
0000000000000000 l    df *ABS*	0000000000000000              
0000000000403e50 l       .dynamic	0000000000000000              __init_array_end
0000000000403e50 l     O .dynamic	0000000000000000              _DYNAMIC
0000000000403e50 l       .dynamic	0000000000000000              __init_array_start
0000000000404000 l     O .got.plt	0000000000000000              _GLOBAL_OFFSET_TABLE_
00000000004011c0 g     F .text	0000000000000005              __libc_csu_fini
0000000000401403 g     F .text	0000000000000041              printInt
0000000000404090 g     O .bss	0000000000000008              stdout@@GLIBC_2.2.5
0000000000404088  w      .data	0000000000000000              data_start
000000000040157f g     F .text	000000000000004f              getChar
00000000004040a0 g     O .bss	0000000000000008              stdin@@GLIBC_2.2.5
00000000004014c0 g     F .text	0000000000000062              getBool
0000000000404090 g       .data	0000000000000000              _edata
00000000004013cb g     F .text	0000000000000038              printStr
00000000004015ce g     F .text	00000000000000be              getByte
0000000000401698 g     F .fini	0000000000000000              .hidden _fini
0000000000000000       F *UND*	0000000000000000              __stack_chk_fail@@GLIBC_2.4
0000000000000000       F *UND*	0000000000000000              printf@@GLIBC_2.2.5
0000000000401328 g     F .text	000000000000006b              printBool
0000000000000000       F *UND*	0000000000000000              fputs@@GLIBC_2.2.5
0000000000401486 g     F .text	000000000000003a              printString
0000000000000000       F *UND*	0000000000000000              fputc@@GLIBC_2.2.5
0000000000000000       F *UND*	0000000000000000              __libc_start_main@@GLIBC_2.2.5
0000000000000000       F *UND*	0000000000000000              fgets@@GLIBC_2.2.5
0000000000404088 g       .data	0000000000000000              __data_start
0000000000000000       F *UND*	0000000000000000              getchar@@GLIBC_2.2.5
0000000000000000       F *UND*	0000000000000000              fprintf@@GLIBC_2.2.5
0000000000000000  w      *UND*	0000000000000000              __gmon_start__
0000000000402000 g     O .rodata	0000000000000004              _IO_stdin_used
0000000000401150 g     F .text	0000000000000065              __libc_csu_init
0000000000000000       F *UND*	0000000000000000              fflush@@GLIBC_2.2.5
0000000000000000       F *UND*	0000000000000000              __isoc99_sscanf@@GLIBC_2.7
0000000000000000       F *UND*	0000000000000000              ungetc@@GLIBC_2.2.5
00000000004040a8 g       .bss	0000000000000000              _end
0000000000401140 g     F .text	0000000000000005              .hidden _dl_relocate_static_pie
0000000000401110 g     F .text	000000000000002f              _start
0000000000401393 g     F .text	0000000000000038              printChar
0000000000404090 g       .bss	0000000000000000              __bss_start
00000000004011c5 g       .text	0000000000000000              main
0000000000401444 g     F .text	0000000000000042              printByte
0000000000000000       F *UND*	0000000000000000              atol@@GLIBC_2.2.5
0000000000401522 g     F .text	000000000000005d              getInt
0000000000000000       F *UND*	0000000000000000              atoi@@GLIBC_2.2.5
0000000000000000       F *UND*	0000000000000000              __isoc99_scanf@@GLIBC_2.7
0000000000000000       F *UND*	0000000000000000              fwrite@@GLIBC_2.2.5
000000000040168c g     F .text	000000000000000b              getStr
0000000000401000 g     F .init	0000000000000000              .hidden _init



Disassembly of section .init:

0000000000401000 <_init>:
  401000:	f3 0f 1e fa          	endbr64 
  401004:	48 83 ec 08          	sub    $0x8,%rsp
  401008:	48 8b 05 e9 2f 00 00 	mov    0x2fe9(%rip),%rax        # 403ff8 <__gmon_start__>
  40100f:	48 85 c0             	test   %rax,%rax
  401012:	74 02                	je     401016 <_init+0x16>
  401014:	ff d0                	callq  *%rax
  401016:	48 83 c4 08          	add    $0x8,%rsp
  40101a:	c3                   	retq   

Disassembly of section .plt:

0000000000401020 <.plt>:
  401020:	ff 35 e2 2f 00 00    	pushq  0x2fe2(%rip)        # 404008 <_GLOBAL_OFFSET_TABLE_+0x8>
  401026:	ff 25 e4 2f 00 00    	jmpq   *0x2fe4(%rip)        # 404010 <_GLOBAL_OFFSET_TABLE_+0x10>
  40102c:	0f 1f 40 00          	nopl   0x0(%rax)

0000000000401030 <__stack_chk_fail@plt>:
  401030:	ff 25 e2 2f 00 00    	jmpq   *0x2fe2(%rip)        # 404018 <__stack_chk_fail@GLIBC_2.4>
  401036:	68 00 00 00 00       	pushq  $0x0
  40103b:	e9 e0 ff ff ff       	jmpq   401020 <.plt>

0000000000401040 <printf@plt>:
  401040:	ff 25 da 2f 00 00    	jmpq   *0x2fda(%rip)        # 404020 <printf@GLIBC_2.2.5>
  401046:	68 01 00 00 00       	pushq  $0x1
  40104b:	e9 d0 ff ff ff       	jmpq   401020 <.plt>

0000000000401050 <fputs@plt>:
  401050:	ff 25 d2 2f 00 00    	jmpq   *0x2fd2(%rip)        # 404028 <fputs@GLIBC_2.2.5>
  401056:	68 02 00 00 00       	pushq  $0x2
  40105b:	e9 c0 ff ff ff       	jmpq   401020 <.plt>

0000000000401060 <fputc@plt>:
  401060:	ff 25 ca 2f 00 00    	jmpq   *0x2fca(%rip)        # 404030 <fputc@GLIBC_2.2.5>
  401066:	68 03 00 00 00       	pushq  $0x3
  40106b:	e9 b0 ff ff ff       	jmpq   401020 <.plt>

0000000000401070 <fgets@plt>:
  401070:	ff 25 c2 2f 00 00    	jmpq   *0x2fc2(%rip)        # 404038 <fgets@GLIBC_2.2.5>
  401076:	68 04 00 00 00       	pushq  $0x4
  40107b:	e9 a0 ff ff ff       	jmpq   401020 <.plt>

0000000000401080 <getchar@plt>:
  401080:	ff 25 ba 2f 00 00    	jmpq   *0x2fba(%rip)        # 404040 <getchar@GLIBC_2.2.5>
  401086:	68 05 00 00 00       	pushq  $0x5
  40108b:	e9 90 ff ff ff       	jmpq   401020 <.plt>

0000000000401090 <fprintf@plt>:
  401090:	ff 25 b2 2f 00 00    	jmpq   *0x2fb2(%rip)        # 404048 <fprintf@GLIBC_2.2.5>
  401096:	68 06 00 00 00       	pushq  $0x6
  40109b:	e9 80 ff ff ff       	jmpq   401020 <.plt>

00000000004010a0 <fflush@plt>:
  4010a0:	ff 25 aa 2f 00 00    	jmpq   *0x2faa(%rip)        # 404050 <fflush@GLIBC_2.2.5>
  4010a6:	68 07 00 00 00       	pushq  $0x7
  4010ab:	e9 70 ff ff ff       	jmpq   401020 <.plt>

00000000004010b0 <__isoc99_sscanf@plt>:
  4010b0:	ff 25 a2 2f 00 00    	jmpq   *0x2fa2(%rip)        # 404058 <__isoc99_sscanf@GLIBC_2.7>
  4010b6:	68 08 00 00 00       	pushq  $0x8
  4010bb:	e9 60 ff ff ff       	jmpq   401020 <.plt>

00000000004010c0 <ungetc@plt>:
  4010c0:	ff 25 9a 2f 00 00    	jmpq   *0x2f9a(%rip)        # 404060 <ungetc@GLIBC_2.2.5>
  4010c6:	68 09 00 00 00       	pushq  $0x9
  4010cb:	e9 50 ff ff ff       	jmpq   401020 <.plt>

00000000004010d0 <atol@plt>:
  4010d0:	ff 25 92 2f 00 00    	jmpq   *0x2f92(%rip)        # 404068 <atol@GLIBC_2.2.5>
  4010d6:	68 0a 00 00 00       	pushq  $0xa
  4010db:	e9 40 ff ff ff       	jmpq   401020 <.plt>

00000000004010e0 <atoi@plt>:
  4010e0:	ff 25 8a 2f 00 00    	jmpq   *0x2f8a(%rip)        # 404070 <atoi@GLIBC_2.2.5>
  4010e6:	68 0b 00 00 00       	pushq  $0xb
  4010eb:	e9 30 ff ff ff       	jmpq   401020 <.plt>

00000000004010f0 <__isoc99_scanf@plt>:
  4010f0:	ff 25 82 2f 00 00    	jmpq   *0x2f82(%rip)        # 404078 <__isoc99_scanf@GLIBC_2.7>
  4010f6:	68 0c 00 00 00       	pushq  $0xc
  4010fb:	e9 20 ff ff ff       	jmpq   401020 <.plt>

0000000000401100 <fwrite@plt>:
  401100:	ff 25 7a 2f 00 00    	jmpq   *0x2f7a(%rip)        # 404080 <fwrite@GLIBC_2.2.5>
  401106:	68 0d 00 00 00       	pushq  $0xd
  40110b:	e9 10 ff ff ff       	jmpq   401020 <.plt>

Disassembly of section .text:

0000000000401110 <_start>:
  401110:	f3 0f 1e fa          	endbr64 
  401114:	31 ed                	xor    %ebp,%ebp
  401116:	49 89 d1             	mov    %rdx,%r9
  401119:	5e                   	pop    %rsi
  40111a:	48 89 e2             	mov    %rsp,%rdx
  40111d:	48 83 e4 f0          	and    $0xfffffffffffffff0,%rsp
  401121:	50                   	push   %rax
  401122:	54                   	push   %rsp
  401123:	49 c7 c0 c0 11 40 00 	mov    $0x4011c0,%r8
  40112a:	48 c7 c1 50 11 40 00 	mov    $0x401150,%rcx
  401131:	48 c7 c7 c5 11 40 00 	mov    $0x4011c5,%rdi
  401138:	ff 15 b2 2e 00 00    	callq  *0x2eb2(%rip)        # 403ff0 <__libc_start_main@GLIBC_2.2.5>
  40113e:	f4                   	hlt    
  40113f:	90                   	nop

0000000000401140 <_dl_relocate_static_pie>:
  401140:	f3 0f 1e fa          	endbr64 
  401144:	c3                   	retq   
  401145:	66 2e 0f 1f 84 00 00 00 00 00 	nopw   %cs:0x0(%rax,%rax,1)
  40114f:	90                   	nop

0000000000401150 <__libc_csu_init>:
  401150:	f3 0f 1e fa          	endbr64 
  401154:	41 57                	push   %r15
  401156:	4c 8d 3d f3 2c 00 00 	lea    0x2cf3(%rip),%r15        # 403e50 <_DYNAMIC>
  40115d:	41 56                	push   %r14
  40115f:	49 89 d6             	mov    %rdx,%r14
  401162:	41 55                	push   %r13
  401164:	49 89 f5             	mov    %rsi,%r13
  401167:	41 54                	push   %r12
  401169:	41 89 fc             	mov    %edi,%r12d
  40116c:	55                   	push   %rbp
  40116d:	48 8d 2d dc 2c 00 00 	lea    0x2cdc(%rip),%rbp        # 403e50 <_DYNAMIC>
  401174:	53                   	push   %rbx
  401175:	4c 29 fd             	sub    %r15,%rbp
  401178:	48 83 ec 08          	sub    $0x8,%rsp
  40117c:	e8 7f fe ff ff       	callq  401000 <_init>
  401181:	48 c1 fd 03          	sar    $0x3,%rbp
  401185:	74 1f                	je     4011a6 <__libc_csu_init+0x56>
  401187:	31 db                	xor    %ebx,%ebx
  401189:	0f 1f 80 00 00 00 00 	nopl   0x0(%rax)
  401190:	4c 89 f2             	mov    %r14,%rdx
  401193:	4c 89 ee             	mov    %r13,%rsi
  401196:	44 89 e7             	mov    %r12d,%edi
  401199:	41 ff 14 df          	callq  *(%r15,%rbx,8)
  40119d:	48 83 c3 01          	add    $0x1,%rbx
  4011a1:	48 39 dd             	cmp    %rbx,%rbp
  4011a4:	75 ea                	jne    401190 <__libc_csu_init+0x40>
  4011a6:	48 83 c4 08          	add    $0x8,%rsp
  4011aa:	5b                   	pop    %rbx
  4011ab:	5d                   	pop    %rbp
  4011ac:	41 5c                	pop    %r12
  4011ae:	41 5d                	pop    %r13
  4011b0:	41 5e                	pop    %r14
  4011b2:	41 5f                	pop    %r15
  4011b4:	c3                   	retq   
  4011b5:	66 66 2e 0f 1f 84 00 00 00 00 00 	data16 nopw %cs:0x0(%rax,%rax,1)

00000000004011c0 <__libc_csu_fini>:
  4011c0:	f3 0f 1e fa          	endbr64 
  4011c4:	c3                   	retq   

00000000004011c5 <main>:
  4011c5:	55                   	push   %rbp
  4011c6:	48 89 e5             	mov    %rsp,%rbp
  4011c9:	48 83 c5 10          	add    $0x10,%rbp
  4011cd:	48 83 ec 50          	sub    $0x50,%rsp
  4011d1:	4c 8b 55 e8          	mov    -0x18(%rbp),%r10
  4011d5:	48 31 c0             	xor    %rax,%rax
  4011d8:	b0 00                	mov    $0x0,%al
  4011da:	49 c7 c3 01 00 00 00 	mov    $0x1,%r11
  4011e1:	49 f7 e3             	mul    %r11
  4011e4:	49 01 c2             	add    %rax,%r10
  4011e7:	44 88 55 e0          	mov    %r10b,-0x20(%rbp)
  4011eb:	48 31 c0             	xor    %rax,%rax
  4011ee:	b0 68                	mov    $0x68,%al
  4011f0:	4d 31 ff             	xor    %r15,%r15
  4011f3:	4c 8d 7d e0          	lea    -0x20(%rbp),%r15
  4011f7:	41 88 07             	mov    %al,(%r15)
  4011fa:	4c 8b 55 e8          	mov    -0x18(%rbp),%r10
  4011fe:	48 31 c0             	xor    %rax,%rax
  401201:	b0 01                	mov    $0x1,%al
  401203:	49 c7 c3 01 00 00 00 	mov    $0x1,%r11
  40120a:	49 f7 e3             	mul    %r11
  40120d:	49 01 c2             	add    %rax,%r10
  401210:	44 88 55 d8          	mov    %r10b,-0x28(%rbp)
  401214:	48 31 c0             	xor    %rax,%rax
  401217:	b0 65                	mov    $0x65,%al
  401219:	4d 31 ff             	xor    %r15,%r15
  40121c:	4c 8d 7d d8          	lea    -0x28(%rbp),%r15
  401220:	41 88 07             	mov    %al,(%r15)
  401223:	4c 8b 55 e8          	mov    -0x18(%rbp),%r10
  401227:	48 31 c0             	xor    %rax,%rax
  40122a:	b0 02                	mov    $0x2,%al
  40122c:	49 c7 c3 01 00 00 00 	mov    $0x1,%r11
  401233:	49 f7 e3             	mul    %r11
  401236:	49 01 c2             	add    %rax,%r10
  401239:	44 88 55 d0          	mov    %r10b,-0x30(%rbp)
  40123d:	48 31 c0             	xor    %rax,%rax
  401240:	b0 6c                	mov    $0x6c,%al
  401242:	4d 31 ff             	xor    %r15,%r15
  401245:	4c 8d 7d d0          	lea    -0x30(%rbp),%r15
  401249:	41 88 07             	mov    %al,(%r15)
  40124c:	4c 8b 55 e8          	mov    -0x18(%rbp),%r10
  401250:	48 31 c0             	xor    %rax,%rax
  401253:	b0 03                	mov    $0x3,%al
  401255:	49 c7 c3 01 00 00 00 	mov    $0x1,%r11
  40125c:	49 f7 e3             	mul    %r11
  40125f:	49 01 c2             	add    %rax,%r10
  401262:	44 88 55 c8          	mov    %r10b,-0x38(%rbp)
  401266:	48 31 c0             	xor    %rax,%rax
  401269:	b0 6c                	mov    $0x6c,%al
  40126b:	4d 31 ff             	xor    %r15,%r15
  40126e:	4c 8d 7d c8          	lea    -0x38(%rbp),%r15
  401272:	41 88 07             	mov    %al,(%r15)
  401275:	4c 8b 55 e8          	mov    -0x18(%rbp),%r10
  401279:	48 31 c0             	xor    %rax,%rax
  40127c:	b0 04                	mov    $0x4,%al
  40127e:	49 c7 c3 01 00 00 00 	mov    $0x1,%r11
  401285:	49 f7 e3             	mul    %r11
  401288:	49 01 c2             	add    %rax,%r10
  40128b:	44 88 55 c0          	mov    %r10b,-0x40(%rbp)
  40128f:	48 31 c0             	xor    %rax,%rax
  401292:	b0 6f                	mov    $0x6f,%al
  401294:	4d 31 ff             	xor    %r15,%r15
  401297:	4c 8d 7d c0          	lea    -0x40(%rbp),%r15
  40129b:	41 88 07             	mov    %al,(%r15)
  40129e:	4c 8b 55 e8          	mov    -0x18(%rbp),%r10
  4012a2:	48 31 c0             	xor    %rax,%rax
  4012a5:	b0 05                	mov    $0x5,%al
  4012a7:	49 c7 c3 01 00 00 00 	mov    $0x1,%r11
  4012ae:	49 f7 e3             	mul    %r11
  4012b1:	49 01 c2             	add    %rax,%r10
  4012b4:	44 88 55 b8          	mov    %r10b,-0x48(%rbp)
  4012b8:	48 31 c0             	xor    %rax,%rax
  4012bb:	b0 21                	mov    $0x21,%al
  4012bd:	4d 31 ff             	xor    %r15,%r15
  4012c0:	4c 8d 7d b8          	lea    -0x48(%rbp),%r15
  4012c4:	41 88 07             	mov    %al,(%r15)
  4012c7:	4c 8b 55 e8          	mov    -0x18(%rbp),%r10
  4012cb:	48 31 c0             	xor    %rax,%rax
  4012ce:	b0 06                	mov    $0x6,%al
  4012d0:	49 c7 c3 01 00 00 00 	mov    $0x1,%r11
  4012d7:	49 f7 e3             	mul    %r11
  4012da:	49 01 c2             	add    %rax,%r10
  4012dd:	44 88 55 b0          	mov    %r10b,-0x50(%rbp)
  4012e1:	48 31 c0             	xor    %rax,%rax
  4012e4:	b0 21                	mov    $0x21,%al
  4012e6:	4d 31 ff             	xor    %r15,%r15
  4012e9:	4c 8d 7d b0          	lea    -0x50(%rbp),%r15
  4012ed:	41 88 07             	mov    %al,(%r15)
  4012f0:	4c 8b 55 e8          	mov    -0x18(%rbp),%r10
  4012f4:	48 31 c0             	xor    %rax,%rax
  4012f7:	b0 07                	mov    $0x7,%al
  4012f9:	49 c7 c3 01 00 00 00 	mov    $0x1,%r11
  401300:	49 f7 e3             	mul    %r11
  401303:	49 01 c2             	add    %rax,%r10
  401306:	44 88 55 a8          	mov    %r10b,-0x58(%rbp)
  40130a:	48 31 c0             	xor    %rax,%rax
  40130d:	b0 00                	mov    $0x0,%al
  40130f:	4d 31 ff             	xor    %r15,%r15
  401312:	4c 8d 7d a8          	lea    -0x58(%rbp),%r15
  401316:	41 88 07             	mov    %al,(%r15)
  401319:	48 8b 7d e8          	mov    -0x18(%rbp),%rdi
  40131d:	e8 a9 00 00 00       	callq  4013cb <printStr>

0000000000401322 <lbl_0>:
  401322:	48 83 c4 50          	add    $0x50,%rsp
  401326:	5d                   	pop    %rbp
  401327:	c3                   	retq   

0000000000401328 <printBool>:
  401328:	f3 0f 1e fa          	endbr64 
  40132c:	55                   	push   %rbp
  40132d:	48 89 e5             	mov    %rsp,%rbp
  401330:	48 83 ec 10          	sub    $0x10,%rsp
  401334:	89 f8                	mov    %edi,%eax
  401336:	88 45 fc             	mov    %al,-0x4(%rbp)
  401339:	80 7d fc 00          	cmpb   $0x0,-0x4(%rbp)
  40133d:	75 22                	jne    401361 <printBool+0x39>
  40133f:	48 8b 05 4a 2d 00 00 	mov    0x2d4a(%rip),%rax        # 404090 <stdout@@GLIBC_2.2.5>
  401346:	48 89 c1             	mov    %rax,%rcx
  401349:	ba 05 00 00 00       	mov    $0x5,%edx
  40134e:	be 01 00 00 00       	mov    $0x1,%esi
  401353:	48 8d 3d aa 0c 00 00 	lea    0xcaa(%rip),%rdi        # 402004 <_IO_stdin_used+0x4>
  40135a:	e8 a1 fd ff ff       	callq  401100 <fwrite@plt>
  40135f:	eb 20                	jmp    401381 <printBool+0x59>
  401361:	48 8b 05 28 2d 00 00 	mov    0x2d28(%rip),%rax        # 404090 <stdout@@GLIBC_2.2.5>
  401368:	48 89 c1             	mov    %rax,%rcx
  40136b:	ba 04 00 00 00       	mov    $0x4,%edx
  401370:	be 01 00 00 00       	mov    $0x1,%esi
  401375:	48 8d 3d 8e 0c 00 00 	lea    0xc8e(%rip),%rdi        # 40200a <_IO_stdin_used+0xa>
  40137c:	e8 7f fd ff ff       	callq  401100 <fwrite@plt>
  401381:	48 8b 05 08 2d 00 00 	mov    0x2d08(%rip),%rax        # 404090 <stdout@@GLIBC_2.2.5>
  401388:	48 89 c7             	mov    %rax,%rdi
  40138b:	e8 10 fd ff ff       	callq  4010a0 <fflush@plt>
  401390:	90                   	nop
  401391:	c9                   	leaveq 
  401392:	c3                   	retq   

0000000000401393 <printChar>:
  401393:	f3 0f 1e fa          	endbr64 
  401397:	55                   	push   %rbp
  401398:	48 89 e5             	mov    %rsp,%rbp
  40139b:	48 83 ec 10          	sub    $0x10,%rsp
  40139f:	89 f8                	mov    %edi,%eax
  4013a1:	88 45 fc             	mov    %al,-0x4(%rbp)
  4013a4:	0f be 45 fc          	movsbl -0x4(%rbp),%eax
  4013a8:	48 8b 15 e1 2c 00 00 	mov    0x2ce1(%rip),%rdx        # 404090 <stdout@@GLIBC_2.2.5>
  4013af:	48 89 d6             	mov    %rdx,%rsi
  4013b2:	89 c7                	mov    %eax,%edi
  4013b4:	e8 a7 fc ff ff       	callq  401060 <fputc@plt>
  4013b9:	48 8b 05 d0 2c 00 00 	mov    0x2cd0(%rip),%rax        # 404090 <stdout@@GLIBC_2.2.5>
  4013c0:	48 89 c7             	mov    %rax,%rdi
  4013c3:	e8 d8 fc ff ff       	callq  4010a0 <fflush@plt>
  4013c8:	90                   	nop
  4013c9:	c9                   	leaveq 
  4013ca:	c3                   	retq   

00000000004013cb <printStr>:
  4013cb:	f3 0f 1e fa          	endbr64 
  4013cf:	55                   	push   %rbp
  4013d0:	48 89 e5             	mov    %rsp,%rbp
  4013d3:	48 83 ec 10          	sub    $0x10,%rsp
  4013d7:	48 89 7d f8          	mov    %rdi,-0x8(%rbp)
  4013db:	48 8b 15 ae 2c 00 00 	mov    0x2cae(%rip),%rdx        # 404090 <stdout@@GLIBC_2.2.5>
  4013e2:	48 8b 45 f8          	mov    -0x8(%rbp),%rax
  4013e6:	48 89 d6             	mov    %rdx,%rsi
  4013e9:	48 89 c7             	mov    %rax,%rdi
  4013ec:	e8 5f fc ff ff       	callq  401050 <fputs@plt>
  4013f1:	48 8b 05 98 2c 00 00 	mov    0x2c98(%rip),%rax        # 404090 <stdout@@GLIBC_2.2.5>
  4013f8:	48 89 c7             	mov    %rax,%rdi
  4013fb:	e8 a0 fc ff ff       	callq  4010a0 <fflush@plt>
  401400:	90                   	nop
  401401:	c9                   	leaveq 
  401402:	c3                   	retq   

0000000000401403 <printInt>:
  401403:	f3 0f 1e fa          	endbr64 
  401407:	55                   	push   %rbp
  401408:	48 89 e5             	mov    %rsp,%rbp
  40140b:	48 83 ec 10          	sub    $0x10,%rsp
  40140f:	48 89 7d f8          	mov    %rdi,-0x8(%rbp)
  401413:	48 8b 05 76 2c 00 00 	mov    0x2c76(%rip),%rax        # 404090 <stdout@@GLIBC_2.2.5>
  40141a:	48 8b 55 f8          	mov    -0x8(%rbp),%rdx
  40141e:	48 8d 35 ea 0b 00 00 	lea    0xbea(%rip),%rsi        # 40200f <_IO_stdin_used+0xf>
  401425:	48 89 c7             	mov    %rax,%rdi
  401428:	b8 00 00 00 00       	mov    $0x0,%eax
  40142d:	e8 5e fc ff ff       	callq  401090 <fprintf@plt>
  401432:	48 8b 05 57 2c 00 00 	mov    0x2c57(%rip),%rax        # 404090 <stdout@@GLIBC_2.2.5>
  401439:	48 89 c7             	mov    %rax,%rdi
  40143c:	e8 5f fc ff ff       	callq  4010a0 <fflush@plt>
  401441:	90                   	nop
  401442:	c9                   	leaveq 
  401443:	c3                   	retq   

0000000000401444 <printByte>:
  401444:	f3 0f 1e fa          	endbr64 
  401448:	55                   	push   %rbp
  401449:	48 89 e5             	mov    %rsp,%rbp
  40144c:	48 83 ec 10          	sub    $0x10,%rsp
  401450:	89 f8                	mov    %edi,%eax
  401452:	88 45 fc             	mov    %al,-0x4(%rbp)
  401455:	0f b6 55 fc          	movzbl -0x4(%rbp),%edx
  401459:	48 8b 05 30 2c 00 00 	mov    0x2c30(%rip),%rax        # 404090 <stdout@@GLIBC_2.2.5>
  401460:	48 8d 35 ac 0b 00 00 	lea    0xbac(%rip),%rsi        # 402013 <_IO_stdin_used+0x13>
  401467:	48 89 c7             	mov    %rax,%rdi
  40146a:	b8 00 00 00 00       	mov    $0x0,%eax
  40146f:	e8 1c fc ff ff       	callq  401090 <fprintf@plt>
  401474:	48 8b 05 15 2c 00 00 	mov    0x2c15(%rip),%rax        # 404090 <stdout@@GLIBC_2.2.5>
  40147b:	48 89 c7             	mov    %rax,%rdi
  40147e:	e8 1d fc ff ff       	callq  4010a0 <fflush@plt>
  401483:	90                   	nop
  401484:	c9                   	leaveq 
  401485:	c3                   	retq   

0000000000401486 <printString>:
  401486:	f3 0f 1e fa          	endbr64 
  40148a:	55                   	push   %rbp
  40148b:	48 89 e5             	mov    %rsp,%rbp
  40148e:	48 83 ec 10          	sub    $0x10,%rsp
  401492:	48 89 7d f8          	mov    %rdi,-0x8(%rbp)
  401496:	48 8b 45 f8          	mov    -0x8(%rbp),%rax
  40149a:	48 89 c6             	mov    %rax,%rsi
  40149d:	48 8d 3d 72 0b 00 00 	lea    0xb72(%rip),%rdi        # 402016 <_IO_stdin_used+0x16>
  4014a4:	b8 00 00 00 00       	mov    $0x0,%eax
  4014a9:	e8 92 fb ff ff       	callq  401040 <printf@plt>
  4014ae:	48 8b 05 db 2b 00 00 	mov    0x2bdb(%rip),%rax        # 404090 <stdout@@GLIBC_2.2.5>
  4014b5:	48 89 c7             	mov    %rax,%rdi
  4014b8:	e8 e3 fb ff ff       	callq  4010a0 <fflush@plt>
  4014bd:	90                   	nop
  4014be:	c9                   	leaveq 
  4014bf:	c3                   	retq   

00000000004014c0 <getBool>:
  4014c0:	f3 0f 1e fa          	endbr64 
  4014c4:	55                   	push   %rbp
  4014c5:	48 89 e5             	mov    %rsp,%rbp
  4014c8:	48 83 ec 10          	sub    $0x10,%rsp
  4014cc:	64 48 8b 04 25 28 00 00 00 	mov    %fs:0x28,%rax
  4014d5:	48 89 45 f8          	mov    %rax,-0x8(%rbp)
  4014d9:	31 c0                	xor    %eax,%eax
  4014db:	48 8d 45 f7          	lea    -0x9(%rbp),%rax
  4014df:	48 89 c6             	mov    %rax,%rsi
  4014e2:	48 8d 3d 30 0b 00 00 	lea    0xb30(%rip),%rdi        # 402019 <_IO_stdin_used+0x19>
  4014e9:	b8 00 00 00 00       	mov    $0x0,%eax
  4014ee:	e8 fd fb ff ff       	callq  4010f0 <__isoc99_scanf@plt>
  4014f3:	e8 88 fb ff ff       	callq  401080 <getchar@plt>
  4014f8:	0f b6 45 f7          	movzbl -0x9(%rbp),%eax
  4014fc:	3c 30                	cmp    $0x30,%al
  4014fe:	75 07                	jne    401507 <getBool+0x47>
  401500:	b8 00 00 00 00       	mov    $0x0,%eax
  401505:	eb 05                	jmp    40150c <getBool+0x4c>
  401507:	b8 01 00 00 00       	mov    $0x1,%eax
  40150c:	48 8b 55 f8          	mov    -0x8(%rbp),%rdx
  401510:	64 48 33 14 25 28 00 00 00 	xor    %fs:0x28,%rdx
  401519:	74 05                	je     401520 <getBool+0x60>
  40151b:	e8 10 fb ff ff       	callq  401030 <__stack_chk_fail@plt>
  401520:	c9                   	leaveq 
  401521:	c3                   	retq   

0000000000401522 <getInt>:
  401522:	f3 0f 1e fa          	endbr64 
  401526:	55                   	push   %rbp
  401527:	48 89 e5             	mov    %rsp,%rbp
  40152a:	48 83 ec 40          	sub    $0x40,%rsp
  40152e:	64 48 8b 04 25 28 00 00 00 	mov    %fs:0x28,%rax
  401537:	48 89 45 f8          	mov    %rax,-0x8(%rbp)
  40153b:	31 c0                	xor    %eax,%eax
  40153d:	48 8b 15 5c 2b 00 00 	mov    0x2b5c(%rip),%rdx        # 4040a0 <stdin@@GLIBC_2.2.5>
  401544:	48 8d 45 d0          	lea    -0x30(%rbp),%rax
  401548:	be 20 00 00 00       	mov    $0x20,%esi
  40154d:	48 89 c7             	mov    %rax,%rdi
  401550:	e8 1b fb ff ff       	callq  401070 <fgets@plt>
  401555:	48 8d 45 d0          	lea    -0x30(%rbp),%rax
  401559:	48 89 c7             	mov    %rax,%rdi
  40155c:	e8 6f fb ff ff       	callq  4010d0 <atol@plt>
  401561:	48 89 45 c8          	mov    %rax,-0x38(%rbp)
  401565:	48 8b 45 c8          	mov    -0x38(%rbp),%rax
  401569:	48 8b 4d f8          	mov    -0x8(%rbp),%rcx
  40156d:	64 48 33 0c 25 28 00 00 00 	xor    %fs:0x28,%rcx
  401576:	74 05                	je     40157d <getInt+0x5b>
  401578:	e8 b3 fa ff ff       	callq  401030 <__stack_chk_fail@plt>
  40157d:	c9                   	leaveq 
  40157e:	c3                   	retq   

000000000040157f <getChar>:
  40157f:	f3 0f 1e fa          	endbr64 
  401583:	55                   	push   %rbp
  401584:	48 89 e5             	mov    %rsp,%rbp
  401587:	48 83 ec 10          	sub    $0x10,%rsp
  40158b:	e8 f0 fa ff ff       	callq  401080 <getchar@plt>
  401590:	88 45 fe             	mov    %al,-0x2(%rbp)
  401593:	80 7d fe 0a          	cmpb   $0xa,-0x2(%rbp)
  401597:	74 2f                	je     4015c8 <getChar+0x49>
  401599:	80 7d fe 10          	cmpb   $0x10,-0x2(%rbp)
  40159d:	74 29                	je     4015c8 <getChar+0x49>
  40159f:	e8 dc fa ff ff       	callq  401080 <getchar@plt>
  4015a4:	88 45 ff             	mov    %al,-0x1(%rbp)
  4015a7:	80 7d ff 0a          	cmpb   $0xa,-0x1(%rbp)
  4015ab:	74 1b                	je     4015c8 <getChar+0x49>
  4015ad:	80 7d ff 10          	cmpb   $0x10,-0x1(%rbp)
  4015b1:	74 15                	je     4015c8 <getChar+0x49>
  4015b3:	48 8b 15 e6 2a 00 00 	mov    0x2ae6(%rip),%rdx        # 4040a0 <stdin@@GLIBC_2.2.5>
  4015ba:	0f be 45 ff          	movsbl -0x1(%rbp),%eax
  4015be:	48 89 d6             	mov    %rdx,%rsi
  4015c1:	89 c7                	mov    %eax,%edi
  4015c3:	e8 f8 fa ff ff       	callq  4010c0 <ungetc@plt>
  4015c8:	0f b6 45 fe          	movzbl -0x2(%rbp),%eax
  4015cc:	c9                   	leaveq 
  4015cd:	c3                   	retq   

00000000004015ce <getByte>:
  4015ce:	f3 0f 1e fa          	endbr64 
  4015d2:	55                   	push   %rbp
  4015d3:	48 89 e5             	mov    %rsp,%rbp
  4015d6:	48 83 ec 20          	sub    $0x20,%rsp
  4015da:	64 48 8b 04 25 28 00 00 00 	mov    %fs:0x28,%rax
  4015e3:	48 89 45 f8          	mov    %rax,-0x8(%rbp)
  4015e7:	31 c0                	xor    %eax,%eax
  4015e9:	48 8b 15 b0 2a 00 00 	mov    0x2ab0(%rip),%rdx        # 4040a0 <stdin@@GLIBC_2.2.5>
  4015f0:	48 8d 45 f0          	lea    -0x10(%rbp),%rax
  4015f4:	be 08 00 00 00       	mov    $0x8,%esi
  4015f9:	48 89 c7             	mov    %rax,%rdi
  4015fc:	e8 6f fa ff ff       	callq  401070 <fgets@plt>
  401601:	c7 45 ec 00 00 00 00 	movl   $0x0,-0x14(%rbp)
  401608:	0f b6 45 f0          	movzbl -0x10(%rbp),%eax
  40160c:	3c 30                	cmp    $0x30,%al
  40160e:	75 2e                	jne    40163e <getByte+0x70>
  401610:	0f b6 45 f1          	movzbl -0xf(%rbp),%eax
  401614:	3c 78                	cmp    $0x78,%al
  401616:	74 08                	je     401620 <getByte+0x52>
  401618:	0f b6 45 f1          	movzbl -0xf(%rbp),%eax
  40161c:	3c 58                	cmp    $0x58,%al
  40161e:	75 1e                	jne    40163e <getByte+0x70>
  401620:	48 8d 55 ec          	lea    -0x14(%rbp),%rdx
  401624:	48 8d 45 f0          	lea    -0x10(%rbp),%rax
  401628:	48 8d 35 ed 09 00 00 	lea    0x9ed(%rip),%rsi        # 40201c <_IO_stdin_used+0x1c>
  40162f:	48 89 c7             	mov    %rax,%rdi
  401632:	b8 00 00 00 00       	mov    $0x0,%eax
  401637:	e8 74 fa ff ff       	callq  4010b0 <__isoc99_sscanf@plt>
  40163c:	eb 35                	jmp    401673 <getByte+0xa5>
  40163e:	0f b6 45 f0          	movzbl -0x10(%rbp),%eax
  401642:	3c 30                	cmp    $0x30,%al
  401644:	75 1e                	jne    401664 <getByte+0x96>
  401646:	48 8d 55 ec          	lea    -0x14(%rbp),%rdx
  40164a:	48 8d 45 f0          	lea    -0x10(%rbp),%rax
  40164e:	48 8d 35 ca 09 00 00 	lea    0x9ca(%rip),%rsi        # 40201f <_IO_stdin_used+0x1f>
  401655:	48 89 c7             	mov    %rax,%rdi
  401658:	b8 00 00 00 00       	mov    $0x0,%eax
  40165d:	e8 4e fa ff ff       	callq  4010b0 <__isoc99_sscanf@plt>
  401662:	eb 0f                	jmp    401673 <getByte+0xa5>
  401664:	48 8d 45 f0          	lea    -0x10(%rbp),%rax
  401668:	48 89 c7             	mov    %rax,%rdi
  40166b:	e8 70 fa ff ff       	callq  4010e0 <atoi@plt>
  401670:	89 45 ec             	mov    %eax,-0x14(%rbp)
  401673:	8b 45 ec             	mov    -0x14(%rbp),%eax
  401676:	48 8b 4d f8          	mov    -0x8(%rbp),%rcx
  40167a:	64 48 33 0c 25 28 00 00 00 	xor    %fs:0x28,%rcx
  401683:	74 05                	je     40168a <getByte+0xbc>
  401685:	e8 a6 f9 ff ff       	callq  401030 <__stack_chk_fail@plt>
  40168a:	c9                   	leaveq 
  40168b:	c3                   	retq   

000000000040168c <getStr>:
  40168c:	f3 0f 1e fa          	endbr64 
  401690:	55                   	push   %rbp
  401691:	48 89 e5             	mov    %rsp,%rbp
  401694:	90                   	nop
  401695:	5d                   	pop    %rbp
  401696:	c3                   	retq   

Disassembly of section .fini:

0000000000401698 <_fini>:
  401698:	f3 0f 1e fa          	endbr64 
  40169c:	48 83 ec 08          	sub    $0x8,%rsp
  4016a0:	48 83 c4 08          	add    $0x8,%rsp
  4016a4:	c3                   	retq   
